; Function Attrs: nofree nounwind uwtable
define noalias noundef ptr @Pdr_InvMap(ptr noundef readonly captures(none) %0) local_unnamed_addr #3 {
  %2 = getelementptr i8, ptr %0, i64 4
  %.val11 = load i32, ptr %2, align 4
  %3 = tail call noalias dereferenceable_or_null(16) ptr @malloc(i64 noundef 16) #20
  %4 = add i32 %.val11, -1
  %or.cond.i.i = icmp ult i32 %4, 15
  %spec.store.select.i.i = select i1 %or.cond.i.i, i32 16, i32 %.val11
  %5 = getelementptr inbounds nuw i8, ptr %3, i64 4
  store i32 %spec.store.select.i.i, ptr %3, align 8
  %.not.i.i = icmp eq i32 %spec.store.select.i.i, 0
  br i1 %.not.i.i, label %Vec_IntAlloc.exit.thread.i, label %Vec_IntAlloc.exit.i

Vec_IntAlloc.exit.thread.i:                       ; preds = %1
  %6 = getelementptr inbounds nuw i8, ptr %3, i64 8
  store ptr null, ptr %6, align 8
  store i32 %.val11, ptr %5, align 4
  br label %Vec_IntStart.exit

Vec_IntAlloc.exit.i:                              ; preds = %1
  %7 = sext i32 %spec.store.select.i.i to i64
  %8 = shl nsw i64 %7, 2
  %9 = tail call noalias ptr @malloc(i64 noundef %8) #20
  %10 = getelementptr inbounds nuw i8, ptr %3, i64 8
  store ptr %9, ptr %10, align 8
  store i32 %.val11, ptr %5, align 4
  %.not.i = icmp eq ptr %9, null
  br i1 %.not.i, label %Vec_IntStart.exit, label %11

11:                                               ; preds = %Vec_IntAlloc.exit.i
  %12 = sext i32 %.val11 to i64
  %13 = shl nsw i64 %12, 2
  tail call void @llvm.memset.p0.i64(ptr nonnull align 4 %9, i8 0, i64 %13, i1 false)
  br label %Vec_IntStart.exit

Vec_IntStart.exit:                                ; preds = %Vec_IntAlloc.exit.thread.i, %Vec_IntAlloc.exit.i, %11
  %.val13 = phi ptr [ null, %Vec_IntAlloc.exit.thread.i ], [ null, %Vec_IntAlloc.exit.i ], [ %9, %11 ]
  %14 = icmp sgt i32 %.val11, 0
  br i1 %14, label %.lr.ph, label %.critedge

.lr.ph:                                           ; preds = %Vec_IntStart.exit
  %15 = getelementptr i8, ptr %0, i64 8
  %.val12 = load ptr, ptr %15, align 8
  %16 = zext nneg i32 %.val11 to i64
  br label %17

17:                                               ; preds = %.lr.ph, %23
  %indvars.iv = phi i64 [ 0, %.lr.ph ], [ %indvars.iv.next, %23 ]
  %.01015 = phi i32 [ 0, %.lr.ph ], [ %.1, %23 ]
  %18 = getelementptr inbounds nuw i32, ptr %.val12, i64 %indvars.iv
  %19 = load i32, ptr %18, align 4
  %.not = icmp eq i32 %19, 0
  br i1 %.not, label %23, label %20

20:                                               ; preds = %17
  %21 = add nsw i32 %.01015, 1
  %22 = getelementptr inbounds nuw i32, ptr %.val13, i64 %indvars.iv
  store i32 %.01015, ptr %22, align 4
  br label %23

23:                                               ; preds = %17, %20
  %.1 = phi i32 [ %21, %20 ], [ %.01015, %17 ]
  %indvars.iv.next = add nuw nsw i64 %indvars.iv, 1
  %24 = icmp samesign ult i64 %indvars.iv.next, %16
  br i1 %24, label %17, label %.critedge, !llvm.loop !35

.critedge:                                        ; preds = %23, %Vec_IntStart.exit
  ret ptr %3
}